; Function Attrs: mustprogress nounwind uwtable
define hidden void @_ZN13ThreadIdTable21check_concurrent_workEv() local_unnamed_addr #0 align 2 {
  %1 = load volatile i8, ptr @_ZN13ThreadIdTable9_has_workE, align 1
  %2 = trunc i8 %1 to i1
  br i1 %2, label %_ZN13ThreadIdTable23trigger_concurrent_workEv.exit, label %3

3:                                                ; preds = %0
  %4 = load volatile i64, ptr @_ZL12_items_count, align 8
  %5 = uitofp i64 %4 to double
  %6 = load volatile i64, ptr @_ZL13_current_size, align 8
  %7 = uitofp i64 %6 to double
  %8 = fdiv double %5, %7
  %9 = fcmp ogt double %8, 2.000000e+00
  br i1 %9, label %10, label %_ZN13ThreadIdTable23trigger_concurrent_workEv.exit

10:                                               ; preds = %3
  %11 = load volatile ptr, ptr @_ZL12_local_table, align 8
  %12 = getelementptr inbounds i8, ptr %11, i64 56
  %13 = load volatile i8, ptr %12, align 8
  %14 = trunc i8 %13 to i1
  br i1 %14, label %_ZN13ThreadIdTable23trigger_concurrent_workEv.exit, label %15

15:                                               ; preds = %10
  %16 = load volatile ptr, ptr getelementptr inbounds (i8, ptr @_ZN16LogTagSetMappingILN6LogTag4typeE159ELS1_157ELS1_0ELS1_0ELS1_0ELS1_0EE7_tagsetE, i64 56), align 8
  %.not = icmp eq ptr %16, null
  br i1 %.not, label %18, label %17

17:                                               ; preds = %15
  tail call void (ptr, ...) @_ZN7LogImplILN6LogTag4typeE159ELS1_157ELS1_0ELS1_0ELS1_0ELS1_0EE5writeILN8LogLevel4typeE2EEEvPKcz(ptr noundef nonnull @.str.5, double noundef %8)
  br label %18

18:                                               ; preds = %15, %17
  %19 = load ptr, ptr @Service_lock, align 8
  %.not.i.i.i = icmp eq ptr %19, null
  br i1 %.not.i.i.i, label %_ZN11MutexLockerC2EP5MutexNS0_18SafepointCheckFlagE.exit.thread.i, label %20

_ZN11MutexLockerC2EP5MutexNS0_18SafepointCheckFlagE.exit.thread.i: ; preds = %18
  store volatile i8 1, ptr @_ZN13ThreadIdTable9_has_workE, align 1
  tail call void @_ZN7Monitor10notify_allEv(ptr noundef nonnull align 8 dereferenceable(104) null) #12
  br label %_ZN13ThreadIdTable23trigger_concurrent_workEv.exit

20:                                               ; preds = %18
  tail call void @_ZN5Mutex28lock_without_safepoint_checkEv(ptr noundef nonnull align 8 dereferenceable(104) %19) #12
  store volatile i8 1, ptr @_ZN13ThreadIdTable9_has_workE, align 1
  %21 = load ptr, ptr @Service_lock, align 8
  tail call void @_ZN7Monitor10notify_allEv(ptr noundef nonnull align 8 dereferenceable(104) %21) #12
  tail call void @_ZN5Mutex6unlockEv(ptr noundef nonnull align 8 dereferenceable(104) %19) #12
  br label %_ZN13ThreadIdTable23trigger_concurrent_workEv.exit

_ZN13ThreadIdTable23trigger_concurrent_workEv.exit: ; preds = %20, %_ZN11MutexLockerC2EP5MutexNS0_18SafepointCheckFlagE.exit.thread.i, %0, %10, %3
  ret void
}